target datalayout = "e-m:e-p270:32:32-p271:32:32-p272:64:64-i64:64-i128:128-f80:128-n8:16:32:64-S128"
target triple = "x86_64-pc-linux-gnu"

%struct.lxb_encoding_decode_t = type { ptr, ptr, i64, i64, ptr, i64, i32, i32, i8, i8, i32, %union.anon }
%union.anon = type { %struct.lxb_encoding_ctx_2022_jp_t }
%struct.lxb_encoding_ctx_2022_jp_t = type { i8, i8, i32, i32, i8 }

; Function Attrs: nounwind uwtable
define hidden i32 @lxb_encoding_decode_x_user_defined(ptr noundef %0, ptr noundef %1, ptr noundef %2) #0 {
  %4 = alloca i32, align 4
  %5 = alloca ptr, align 8
  %6 = alloca ptr, align 8
  %7 = alloca ptr, align 8
  store ptr %0, ptr %5, align 8, !tbaa !4
  store ptr %1, ptr %6, align 8, !tbaa !8
  store ptr %2, ptr %7, align 8, !tbaa !10
  br label %8

8:                                                ; preds = %71, %3
  %9 = load ptr, ptr %6, align 8, !tbaa !8
  %10 = load ptr, ptr %9, align 8, !tbaa !10
  %11 = load ptr, ptr %7, align 8, !tbaa !10
  %12 = icmp ult ptr %10, %11
  br i1 %12, label %13, label %72

13:                                               ; preds = %8
  %14 = load ptr, ptr %6, align 8, !tbaa !8
  %15 = load ptr, ptr %14, align 8, !tbaa !10
  %16 = load i8, ptr %15, align 1, !tbaa !27
  %17 = zext i8 %16 to i32
  %18 = icmp slt i32 %17, 128
  br i1 %18, label %19, label %44

19:                                               ; preds = %13
  br label %20

20:                                               ; preds = %19
  %21 = load ptr, ptr %5, align 8, !tbaa !4
  %22 = getelementptr inbounds nuw %struct.lxb_encoding_decode_t, ptr %21, i32 0, i32 3
  %23 = load i64, ptr %22, align 8, !tbaa !23
  %24 = load ptr, ptr %5, align 8, !tbaa !4
  %25 = getelementptr inbounds nuw %struct.lxb_encoding_decode_t, ptr %24, i32 0, i32 2
  %26 = load i64, ptr %25, align 8, !tbaa !25
  %27 = icmp uge i64 %23, %26
  br i1 %27, label %28, label %29

28:                                               ; preds = %20
  store i32 15, ptr %4, align 4
  br label %73

29:                                               ; preds = %20
  %30 = load ptr, ptr %6, align 8, !tbaa !8
  %31 = load ptr, ptr %30, align 8, !tbaa !10
  %32 = getelementptr inbounds nuw i8, ptr %31, i32 1
  store ptr %32, ptr %30, align 8, !tbaa !10
  %33 = load i8, ptr %31, align 1, !tbaa !27
  %34 = zext i8 %33 to i32
  %35 = load ptr, ptr %5, align 8, !tbaa !4
  %36 = getelementptr inbounds nuw %struct.lxb_encoding_decode_t, ptr %35, i32 0, i32 1
  %37 = load ptr, ptr %36, align 8, !tbaa !26
  %38 = load ptr, ptr %5, align 8, !tbaa !4
  %39 = getelementptr inbounds nuw %struct.lxb_encoding_decode_t, ptr %38, i32 0, i32 3
  %40 = load i64, ptr %39, align 8, !tbaa !23
  %41 = add i64 %40, 1
  store i64 %41, ptr %39, align 8, !tbaa !23
  %42 = getelementptr inbounds nuw i32, ptr %37, i64 %40
  store i32 %34, ptr %42, align 4, !tbaa !28
  br label %43

43:                                               ; preds = %29
  br label %71

44:                                               ; preds = %13
  br label %45

45:                                               ; preds = %44
  %46 = load ptr, ptr %5, align 8, !tbaa !4
  %47 = getelementptr inbounds nuw %struct.lxb_encoding_decode_t, ptr %46, i32 0, i32 3
  %48 = load i64, ptr %47, align 8, !tbaa !23
  %49 = load ptr, ptr %5, align 8, !tbaa !4
  %50 = getelementptr inbounds nuw %struct.lxb_encoding_decode_t, ptr %49, i32 0, i32 2
  %51 = load i64, ptr %50, align 8, !tbaa !25
  %52 = icmp uge i64 %48, %51
  br i1 %52, label %53, label %54

53:                                               ; preds = %45
  store i32 15, ptr %4, align 4
  br label %73

54:                                               ; preds = %45
  %55 = load ptr, ptr %6, align 8, !tbaa !8
  %56 = load ptr, ptr %55, align 8, !tbaa !10
  %57 = getelementptr inbounds nuw i8, ptr %56, i32 1
  store ptr %57, ptr %55, align 8, !tbaa !10
  %58 = load i8, ptr %56, align 1, !tbaa !27
  %59 = zext i8 %58 to i32
  %60 = add nsw i32 63360, %59
  %61 = sub nsw i32 %60, 128
  %62 = load ptr, ptr %5, align 8, !tbaa !4
  %63 = getelementptr inbounds nuw %struct.lxb_encoding_decode_t, ptr %62, i32 0, i32 1
  %64 = load ptr, ptr %63, align 8, !tbaa !26
  %65 = load ptr, ptr %5, align 8, !tbaa !4
  %66 = getelementptr inbounds nuw %struct.lxb_encoding_decode_t, ptr %65, i32 0, i32 3
  %67 = load i64, ptr %66, align 8, !tbaa !23
  %68 = add i64 %67, 1
  store i64 %68, ptr %66, align 8, !tbaa !23
  %69 = getelementptr inbounds nuw i32, ptr %64, i64 %67
  store i32 %61, ptr %69, align 4, !tbaa !28
  br label %70

70:                                               ; preds = %54
  br label %71

71:                                               ; preds = %70, %43
  br label %8

72:                                               ; preds = %8
  store i32 0, ptr %4, align 4
  br label %73

73:                                               ; preds = %72, %53, %28
  %74 = load i32, ptr %4, align 4
  ret i32 %74
}