; Function Attrs: nofree norecurse nosync nounwind memory(readwrite, inaccessiblemem: none) uwtable
define hidden range(i32 0, 16) i32 @lxb_encoding_decode_x_user_defined(ptr noundef captures(none) %0, ptr noundef captures(none) %1, ptr noundef readnone captures(address) %2) local_unnamed_addr #0 {
  %4 = getelementptr inbounds nuw i8, ptr %0, i64 24
  %.promoted = load ptr, ptr %1, align 8, !tbaa !4
  %5 = icmp ult ptr %.promoted, %2
  br i1 %5, label %.lr.ph, label %._crit_edge

.lr.ph:                                           ; preds = %3
  %6 = getelementptr inbounds nuw i8, ptr %0, i64 16
  %7 = getelementptr inbounds nuw i8, ptr %0, i64 8
  %8 = load i64, ptr %6, align 8, !tbaa !22
  %.promoted22 = load i64, ptr %4, align 8, !tbaa !20
  br label %9

9:                                                ; preds = %.lr.ph, %25
  %10 = phi i64 [ %.promoted22, %.lr.ph ], [ %28, %25 ]
  %11 = phi ptr [ %.promoted, %.lr.ph ], [ %26, %25 ]
  %12 = load i8, ptr %11, align 1, !tbaa !24
  %13 = icmp sgt i8 %12, -1
  %.not14 = icmp ult i64 %10, %8
  br i1 %13, label %14, label %19

14:                                               ; preds = %9
  br i1 %.not14, label %15, label %._crit_edge

15:                                               ; preds = %14
  %16 = getelementptr inbounds nuw i8, ptr %11, i64 1
  store ptr %16, ptr %1, align 8, !tbaa !4
  %17 = load i8, ptr %11, align 1, !tbaa !24
  %18 = zext i8 %17 to i32
  br label %25

19:                                               ; preds = %9
  br i1 %.not14, label %20, label %._crit_edge

20:                                               ; preds = %19
  %21 = getelementptr inbounds nuw i8, ptr %11, i64 1
  store ptr %21, ptr %1, align 8, !tbaa !4
  %22 = load i8, ptr %11, align 1, !tbaa !24
  %23 = zext i8 %22 to i32
  %24 = or disjoint i32 %23, 63232
  br label %25

25:                                               ; preds = %20, %15
  %.sink = phi i32 [ %24, %20 ], [ %18, %15 ]
  %26 = phi ptr [ %21, %20 ], [ %16, %15 ]
  %27 = load ptr, ptr %7, align 8, !tbaa !23
  %28 = add nuw i64 %10, 1
  store i64 %28, ptr %4, align 8, !tbaa !20
  %29 = getelementptr inbounds nuw i32, ptr %27, i64 %10
  store i32 %.sink, ptr %29, align 4, !tbaa !26
  %30 = icmp ult ptr %26, %2
  br i1 %30, label %9, label %._crit_edge

._crit_edge:                                      ; preds = %14, %19, %25, %3
  %.0 = phi i32 [ 0, %3 ], [ 0, %25 ], [ 15, %19 ], [ 15, %14 ]
  ret i32 %.0
}